target datalayout = "e-m:e-p270:32:32-p271:32:32-p272:64:64-i64:64-i128:128-f80:128-n8:16:32:64-S128"
target triple = "x86_64-pc-linux-gnu"

@_ZN7VM_Exit10_vm_exitedE = external global i8, align 1
@_ZN11OSContainer17_is_containerizedE = external global i8, align 1

; Function Attrs: mustprogress nounwind uwtable
define linkonce_odr hidden noundef zeroext i1 @_ZN11OSContainer16is_containerizedEv() #1 comdat align 2 {
  %1 = load i8, ptr @_ZN11OSContainer17_is_containerizedE, align 1
  %2 = trunc i8 %1 to i1
  ret i1 %2
}

; Function Attrs: mustprogress nounwind uwtable
define linkonce_odr hidden void @_ZN2os22verify_stack_alignmentEv() #1 comdat align 2 {
  ret void
}

; Function Attrs: mustprogress nounwind uwtable
define linkonce_odr hidden void @_ZN7VM_Exit18block_if_vm_exitedEv() #1 comdat align 2 {
  %1 = load volatile i8, ptr @_ZN7VM_Exit10_vm_exitedE, align 1
  %2 = trunc i8 %1 to i1
  br i1 %2, label %3, label %4

3:                                                ; preds = %0
  call void @_ZN7VM_Exit17wait_if_vm_exitedEv()
  br label %4

4:                                                ; preds = %3, %0
  ret void
}

; Function Attrs: mustprogress nounwind uwtable
define zeroext i8 @JVM_IsContainerized() #1 {
  %1 = alloca i8, align 1
  call void @_ZN7VM_Exit18block_if_vm_exitedEv()
  call void @_ZN2os22verify_stack_alignmentEv()
  %2 = call noundef zeroext i1 @_ZN11OSContainer16is_containerizedEv()
  br i1 %2, label %3, label %4

3:                                                ; preds = %0
  store i8 1, ptr %1, align 1
  br label %5

4:                                                ; preds = %0
  store i8 0, ptr %1, align 1
  br label %5

5:                                                ; preds = %4, %3
  %6 = load i8, ptr %1, align 1
  ret i8 %6
}